(dp1
S'close_to_tray'
p2
I01
sS'ntf_sound_path'
p3
S'/home/goffa'
p4
sS'window_width'
p5
I1918
sS'default_load_path'
p6
NsS'window_y_pos'
p7
I123
sS'ntf_email'
p8
I00
sS'tray_upload_speed_list'
p9
(lp10
F5
aF10
aF30
aF80
aF300
asS'show_statusbar'
p11
I01
sS'ntf_popup'
p12
I01
sS'ntf_pass'
p13
S''
sS'show_sidebar'
p14
I01
sS'autoconnect_host_uri'
p15
NsS'window_maximized'
p16
I00
sS'enable_system_tray'
p17
I01
sS'tray_download_speed_list'
p18
(lp19
F5
aF10
aF30
aF80
aF300
asS'show_connection_manager_on_start'
p20
I01
sS'lock_tray'
p21
I00
sS'ntf_sound'
p22
I00
sS'tray_password'
p23
S''
sS'focus_add_dialog'
p24
I01
sS'ntf_server'
p25
S''
sS'start_in_tray'
p26
I00
sS'ntf_tray_blink'
p27
I01
sS'check_new_releases'
p28
I01
sS'autoadd_queued'
p29
I00
sS'classic_mode'
p30
I01
sS'window_pane_position'
p31
I468
sS'enabled_plugins'
p32
(lp33
sS'show_rate_in_title'
p34
I00
sS'autoadd_enable'
p35
I00
sS'ntf_username'
p36
S''
sS'interactive_add'
p37
I00
sS'sidebar_show_zero'
p38
I00
sS'window_x_pos'
p39
I-1
sS'window_height'
p40
I788
sS'ntf_security'
p41
NsS'connection_limit_list'
p42
(lp43
I50
aI100
aI200
aI300
aI500
asS'sidebar_position'
p44
I170
sS'show_new_releases'
p45
I01
sS'autoconnect'
p46
I00
sS'choose_directory_dialog_path'
p47
S'/home/goffa'
p48
sS'sidebar_show_trackers'
p49
I01
sS'autostart_localhost'
p50
I00
sS'show_toolbar'
p51
I01
sS'autoadd_location'
p52
S''
sS'config_location'
p53
S'/home/goffa/.config/deluge'
p54
sS'ntf_email_add'
p55
S''
sS'signal_port'
p56
I51390
s.